; Function Attrs: mustprogress nounwind uwtable
define hidden noundef ptr @_ZNK13SafePointNode16peek_monitor_boxEv(ptr noundef nonnull align 8 dereferenceable(81) %0) local_unnamed_addr #2 align 2 {
  %2 = load ptr, ptr %0, align 8
  %3 = getelementptr inbounds i8, ptr %2, i64 144
  %4 = load ptr, ptr %3, align 8
  %5 = tail call noundef ptr %4(ptr noundef nonnull align 8 dereferenceable(81) %0) #15
  %6 = getelementptr inbounds i8, ptr %5, i64 24
  %7 = load i32, ptr %6, align 8
  %8 = getelementptr inbounds i8, ptr %5, i64 20
  %9 = load i32, ptr %8, align 4
  %10 = sub i32 %7, %9
  %11 = and i32 %10, -2
  %12 = load ptr, ptr %0, align 8
  %13 = getelementptr inbounds i8, ptr %12, i64 144
  %14 = load ptr, ptr %13, align 8
  %15 = tail call noundef ptr %14(ptr noundef nonnull align 8 dereferenceable(81) %0) #15
  %16 = getelementptr inbounds i8, ptr %15, i64 20
  %17 = load i32, ptr %16, align 4
  %18 = add i32 %11, -2
  %19 = add i32 %18, %17
  %20 = getelementptr inbounds i8, ptr %0, i64 8
  %21 = load ptr, ptr %20, align 8
  %22 = zext i32 %19 to i64
  %23 = getelementptr inbounds ptr, ptr %21, i64 %22
  %24 = load ptr, ptr %23, align 8
  ret ptr %24
}